; Function Attrs: mustprogress uwtable
define void @_ZNK3gmx11BiasSharing23sumOverSharingMainRanksENS_8ArrayRefIlEEi(ptr noundef nonnull readonly align 8 captures(none) dereferenceable(104) %0, ptr %1, ptr %2, i32 noundef %3) local_unnamed_addr #0 align 2 {
  %5 = getelementptr inbounds nuw i8, ptr %0, i64 48
  %6 = load ptr, ptr %5, align 8, !tbaa !126
  %7 = getelementptr inbounds nuw i8, ptr %6, i64 60
  %8 = load i32, ptr %7, align 4, !tbaa !15
  %9 = icmp ne i32 %8, 0
  %10 = getelementptr inbounds nuw i8, ptr %6, i64 56
  %11 = load i32, ptr %10, align 8
  %12 = icmp sgt i32 %11, 1
  %or.cond.i = select i1 %9, i1 %12, i1 false
  br i1 %or.cond.i, label %_ZN3gmx18sumOverSimulationsIlEEvNS_8ArrayRefIT_EEP10tmpi_comm_bRK9t_commrec.exit, label %13

13:                                               ; preds = %4
  %14 = getelementptr inbounds nuw i8, ptr %0, i64 56
  %15 = load ptr, ptr %14, align 8, !tbaa !85
  %16 = sext i32 %3 to i64
  %17 = getelementptr inbounds nuw ptr, ptr %15, i64 %16
  %18 = load ptr, ptr %17, align 8, !tbaa !13
  %19 = ptrtoint ptr %2 to i64
  %20 = ptrtoint ptr %1 to i64
  %21 = sub i64 %19, %20
  %22 = lshr exact i64 %21, 3
  %23 = trunc i64 %22 to i32
  %24 = load ptr, ptr @TMPI_LONG, align 8, !tbaa !38
  %25 = tail call noundef i32 @_Z14tMPI_AllreducePKvPviP14tmpi_datatype_7tMPI_OpP10tmpi_comm_(ptr noundef null, ptr noundef %1, i32 noundef %23, ptr noundef %24, i32 noundef 2, ptr noundef %18)
  br label %_ZN3gmx18sumOverSimulationsIlEEvNS_8ArrayRefIT_EEP10tmpi_comm_bRK9t_commrec.exit

_ZN3gmx18sumOverSimulationsIlEEvNS_8ArrayRefIT_EEP10tmpi_comm_bRK9t_commrec.exit: ; preds = %4, %13
  ret void
}